; Function Attrs: mustprogress nofree norecurse nosync nounwind willreturn memory(argmem: readwrite) uwtable
define internal noundef zeroext i1 @_ZNSt17_Function_handlerIFvRNSt7__cxx1112basic_stringIcSt11char_traitsIcESaIcEEEEZZNK8PathNode8EvaluateERKSt6vectorIS5_SaIS5_EEP28cmGeneratorExpressionContextPK26GeneratorExpressionContentP31cmGeneratorExpressionDAGCheckerENKUlSF_SI_RN12_GLOBAL__N_15RangeISB_EEE21_clESF_SI_SO_EUlS6_E_E10_M_managerERSt9_Any_dataRKSS_St18_Manager_operation(ptr nocapture noundef nonnull writeonly align 8 dereferenceable(16) %0, ptr noundef nonnull align 8 dereferenceable(16) %1, i32 noundef %2) #16 align 2 personality ptr @__gxx_personality_v0 {
  switch i32 %2, label %_ZNSt14_Function_base13_Base_managerIZZNK8PathNode8EvaluateERKSt6vectorINSt7__cxx1112basic_stringIcSt11char_traitsIcESaIcEEESaIS8_EEP28cmGeneratorExpressionContextPK26GeneratorExpressionContentP31cmGeneratorExpressionDAGCheckerENKUlSE_SH_RN12_GLOBAL__N_15RangeISA_EEE21_clB5cxx11ESE_SH_SN_EUlRS8_E_E10_M_managerERSt9_Any_dataRKSS_St18_Manager_operation.exit [
    i32 0, label %4
    i32 1, label %5
    i32 2, label %6
  ]

4:                                                ; preds = %3
  store ptr @_ZTIZZNK8PathNode8EvaluateERKSt6vectorINSt7__cxx1112basic_stringIcSt11char_traitsIcESaIcEEESaIS6_EEP28cmGeneratorExpressionContextPK26GeneratorExpressionContentP31cmGeneratorExpressionDAGCheckerENKUlSC_SF_RN12_GLOBAL__N_15RangeIS8_EEE21_clB5cxx11ESC_SF_SL_EUlRS6_E_, ptr %0, align 8
  br label %_ZNSt14_Function_base13_Base_managerIZZNK8PathNode8EvaluateERKSt6vectorINSt7__cxx1112basic_stringIcSt11char_traitsIcESaIcEEESaIS8_EEP28cmGeneratorExpressionContextPK26GeneratorExpressionContentP31cmGeneratorExpressionDAGCheckerENKUlSE_SH_RN12_GLOBAL__N_15RangeISA_EEE21_clB5cxx11ESE_SH_SN_EUlRS8_E_E10_M_managerERSt9_Any_dataRKSS_St18_Manager_operation.exit

5:                                                ; preds = %3
  store ptr %1, ptr %0, align 8
  br label %_ZNSt14_Function_base13_Base_managerIZZNK8PathNode8EvaluateERKSt6vectorINSt7__cxx1112basic_stringIcSt11char_traitsIcESaIcEEESaIS8_EEP28cmGeneratorExpressionContextPK26GeneratorExpressionContentP31cmGeneratorExpressionDAGCheckerENKUlSE_SH_RN12_GLOBAL__N_15RangeISA_EEE21_clB5cxx11ESE_SH_SN_EUlRS8_E_E10_M_managerERSt9_Any_dataRKSS_St18_Manager_operation.exit

6:                                                ; preds = %3
  %.val.i = load i64, ptr %1, align 8
  store i64 %.val.i, ptr %0, align 8
  br label %_ZNSt14_Function_base13_Base_managerIZZNK8PathNode8EvaluateERKSt6vectorINSt7__cxx1112basic_stringIcSt11char_traitsIcESaIcEEESaIS8_EEP28cmGeneratorExpressionContextPK26GeneratorExpressionContentP31cmGeneratorExpressionDAGCheckerENKUlSE_SH_RN12_GLOBAL__N_15RangeISA_EEE21_clB5cxx11ESE_SH_SN_EUlRS8_E_E10_M_managerERSt9_Any_dataRKSS_St18_Manager_operation.exit

_ZNSt14_Function_base13_Base_managerIZZNK8PathNode8EvaluateERKSt6vectorINSt7__cxx1112basic_stringIcSt11char_traitsIcESaIcEEESaIS8_EEP28cmGeneratorExpressionContextPK26GeneratorExpressionContentP31cmGeneratorExpressionDAGCheckerENKUlSE_SH_RN12_GLOBAL__N_15RangeISA_EEE21_clB5cxx11ESE_SH_SN_EUlRS8_E_E10_M_managerERSt9_Any_dataRKSS_St18_Manager_operation.exit: ; preds = %3, %6, %5, %4
  ret i1 false
}